; Function Attrs: mustprogress uwtable
define noundef i32 @_ZN6icu_7716BytesTrieBuilder5writeEPKci(ptr noundef nonnull align 8 captures(none) dereferenceable(56) %0, ptr noundef readonly captures(none) %1, i32 noundef %2) local_unnamed_addr #1 align 2 {
  %4 = getelementptr inbounds nuw i8, ptr %0, i64 52
  %5 = load i32, ptr %4, align 4, !tbaa !32
  %6 = add nsw i32 %5, %2
  %7 = getelementptr inbounds nuw i8, ptr %0, i64 40
  %8 = load ptr, ptr %7, align 8, !tbaa !31
  %9 = icmp eq ptr %8, null
  br i1 %9, label %_ZN6icu_7716BytesTrieBuilder14ensureCapacityEi.exit.thread, label %10

10:                                               ; preds = %3
  %11 = getelementptr inbounds nuw i8, ptr %0, i64 48
  %12 = load i32, ptr %11, align 8, !tbaa !35
  %13 = icmp sgt i32 %6, %12
  br i1 %13, label %.preheader.i, label %_ZN6icu_7716BytesTrieBuilder14ensureCapacityEi.exit.thread7

.preheader.i:                                     ; preds = %10, %.preheader.i
  %.013.i = phi i32 [ %14, %.preheader.i ], [ %12, %10 ]
  %14 = shl nsw i32 %.013.i, 1
  %.not.i = icmp sgt i32 %14, %6
  br i1 %.not.i, label %15, label %.preheader.i, !llvm.loop !60

15:                                               ; preds = %.preheader.i
  %16 = sext i32 %14 to i64
  %17 = tail call noalias ptr @uprv_malloc_77(i64 noundef %16) #20
  %18 = icmp eq ptr %17, null
  br i1 %18, label %_ZN6icu_7716BytesTrieBuilder14ensureCapacityEi.exit.thread10, label %_ZN6icu_7716BytesTrieBuilder14ensureCapacityEi.exit

_ZN6icu_7716BytesTrieBuilder14ensureCapacityEi.exit.thread10: ; preds = %15
  %19 = load ptr, ptr %7, align 8, !tbaa !31
  tail call void @uprv_free_77(ptr noundef %19)
  store ptr %17, ptr %7, align 8, !tbaa !31
  store i32 0, ptr %11, align 8, !tbaa !35
  br label %_ZN6icu_7716BytesTrieBuilder14ensureCapacityEi.exit.thread

_ZN6icu_7716BytesTrieBuilder14ensureCapacityEi.exit: ; preds = %15
  %20 = load i32, ptr %4, align 4, !tbaa !32
  %21 = sub nsw i32 %14, %20
  %22 = sext i32 %21 to i64
  %23 = getelementptr inbounds i8, ptr %17, i64 %22
  %24 = load ptr, ptr %7, align 8, !tbaa !31
  %25 = load i32, ptr %11, align 8, !tbaa !35
  %26 = sub nsw i32 %25, %20
  %27 = sext i32 %26 to i64
  %28 = getelementptr inbounds i8, ptr %24, i64 %27
  %29 = sext i32 %20 to i64
  tail call void @llvm.memcpy.p0.p0.i64(ptr nonnull align 1 %23, ptr align 1 %28, i64 %29, i1 false)
  tail call void @uprv_free_77(ptr noundef %24)
  store ptr %17, ptr %7, align 8, !tbaa !31
  store i32 %14, ptr %11, align 8, !tbaa !35
  br label %_ZN6icu_7716BytesTrieBuilder14ensureCapacityEi.exit.thread7

_ZN6icu_7716BytesTrieBuilder14ensureCapacityEi.exit.thread7: ; preds = %_ZN6icu_7716BytesTrieBuilder14ensureCapacityEi.exit, %10
  %30 = phi i32 [ %12, %10 ], [ %14, %_ZN6icu_7716BytesTrieBuilder14ensureCapacityEi.exit ]
  %31 = phi ptr [ %8, %10 ], [ %17, %_ZN6icu_7716BytesTrieBuilder14ensureCapacityEi.exit ]
  store i32 %6, ptr %4, align 4, !tbaa !32
  %32 = sub nsw i32 %30, %6
  %33 = sext i32 %32 to i64
  %34 = getelementptr inbounds i8, ptr %31, i64 %33
  %35 = sext i32 %2 to i64
  tail call void @llvm.memcpy.p0.p0.i64(ptr nonnull align 1 %34, ptr align 1 %1, i64 %35, i1 false)
  br label %_ZN6icu_7716BytesTrieBuilder14ensureCapacityEi.exit.thread

_ZN6icu_7716BytesTrieBuilder14ensureCapacityEi.exit.thread: ; preds = %_ZN6icu_7716BytesTrieBuilder14ensureCapacityEi.exit.thread10, %3, %_ZN6icu_7716BytesTrieBuilder14ensureCapacityEi.exit.thread7
  %36 = load i32, ptr %4, align 4, !tbaa !32
  ret i32 %36
}